target datalayout = "e-m:e-p270:32:32-p271:32:32-p272:64:64-i64:64-i128:128-f80:128-n8:16:32:64-S128"
target triple = "x86_64-pc-linux-gnu"

%struct.ACLLogEntry = type { i64, i32, i32, ptr, ptr, i64, ptr, i64, i64 }

; Function Attrs: nounwind uwtable
define dso_local void @ACLFreeLogEntry(ptr noundef %0) #0 {
  %2 = alloca ptr, align 8
  %3 = alloca ptr, align 8
  store ptr %0, ptr %2, align 8, !tbaa !32
  call void @llvm.lifetime.start.p0(i64 8, ptr %3) #14
  %4 = load ptr, ptr %2, align 8, !tbaa !32
  store ptr %4, ptr %3, align 8, !tbaa !158
  %5 = load ptr, ptr %3, align 8, !tbaa !158
  %6 = getelementptr inbounds nuw %struct.ACLLogEntry, ptr %5, i32 0, i32 3
  %7 = load ptr, ptr %6, align 8, !tbaa !168
  call void @sdsfree(ptr noundef %7)
  %8 = load ptr, ptr %3, align 8, !tbaa !158
  %9 = getelementptr inbounds nuw %struct.ACLLogEntry, ptr %8, i32 0, i32 4
  %10 = load ptr, ptr %9, align 8, !tbaa !163
  call void @sdsfree(ptr noundef %10)
  %11 = load ptr, ptr %3, align 8, !tbaa !158
  %12 = getelementptr inbounds nuw %struct.ACLLogEntry, ptr %11, i32 0, i32 6
  %13 = load ptr, ptr %12, align 8, !tbaa !172
  call void @sdsfree(ptr noundef %13)
  %14 = load ptr, ptr %3, align 8, !tbaa !158
  call void @zfree(ptr noundef %14)
  call void @llvm.lifetime.end.p0(i64 8, ptr %3) #14
  ret void
}