; Function Attrs: nounwind uwtable
define dso_local void @ACLFreeLogEntry(ptr noundef %0) #0 {
  %2 = getelementptr inbounds nuw i8, ptr %0, i64 16
  %3 = load ptr, ptr %2, align 8, !tbaa !155
  tail call void @sdsfree(ptr noundef %3) #25
  %4 = getelementptr inbounds nuw i8, ptr %0, i64 24
  %5 = load ptr, ptr %4, align 8, !tbaa !157
  tail call void @sdsfree(ptr noundef %5) #25
  %6 = getelementptr inbounds nuw i8, ptr %0, i64 40
  %7 = load ptr, ptr %6, align 8, !tbaa !158
  tail call void @sdsfree(ptr noundef %7) #25
  tail call void @zfree(ptr noundef %0) #25
  ret void
}